; Function Attrs: mustprogress uwtable
define dso_local void @_ZN4Json6Reader17skipCommentTokensERNS0_5TokenE(ptr noundef nonnull align 8 dereferenceable(267) %0, ptr nocapture noundef nonnull align 8 dereferenceable(24) %1) local_unnamed_addr #2 align 2 {
  %3 = getelementptr inbounds i8, ptr %0, i64 264
  %4 = load i8, ptr %3, align 8
  %5 = trunc i8 %4 to i1
  br i1 %5, label %.preheader, label %9

.preheader:                                       ; preds = %2, %.preheader
  %6 = tail call noundef zeroext i1 @_ZN4Json6Reader9readTokenERNS0_5TokenE(ptr noundef nonnull align 8 dereferenceable(267) %0, ptr noundef nonnull align 8 dereferenceable(24) %1)
  %7 = load i32, ptr %1, align 8
  %8 = icmp eq i32 %7, 12
  br i1 %8, label %.preheader, label %.loopexit, !llvm.loop !11

9:                                                ; preds = %2
  %10 = tail call noundef zeroext i1 @_ZN4Json6Reader9readTokenERNS0_5TokenE(ptr noundef nonnull align 8 dereferenceable(267) %0, ptr noundef nonnull align 8 dereferenceable(24) %1)
  br label %.loopexit

.loopexit:                                        ; preds = %.preheader, %9
  ret void
}